target datalayout = "e-m:e-p270:32:32-p271:32:32-p272:64:64-i64:64-i128:128-f80:128-n8:16:32:64-S128"
target triple = "x86_64-pc-linux-gnu"

; Function Attrs: nounwind sspstrong uwtable
define internal i32 @case_map(ptr noundef %0, ptr noundef %1, ptr noundef %2, ptr noundef %3, ptr noundef %4, ptr noundef %5) #0 {
  %7 = alloca ptr, align 8
  %8 = alloca ptr, align 8
  %9 = alloca ptr, align 8
  %10 = alloca ptr, align 8
  %11 = alloca ptr, align 8
  %12 = alloca ptr, align 8
  %13 = alloca i32, align 4
  %14 = alloca ptr, align 8
  %15 = alloca i32, align 4
  store ptr %0, ptr %7, align 8, !tbaa !23
  store ptr %1, ptr %8, align 8, !tbaa !14
  store ptr %2, ptr %9, align 8, !tbaa !16
  store ptr %3, ptr %10, align 8, !tbaa !16
  store ptr %4, ptr %11, align 8, !tbaa !16
  store ptr %5, ptr %12, align 8, !tbaa !17
  call void @llvm.lifetime.start.p0(i64 4, ptr %13) #3
  call void @llvm.lifetime.start.p0(i64 8, ptr %14) #3
  %16 = load ptr, ptr %10, align 8, !tbaa !16
  store ptr %16, ptr %14, align 8, !tbaa !16
  call void @llvm.lifetime.start.p0(i64 4, ptr %15) #3
  %17 = load ptr, ptr %7, align 8, !tbaa !23
  %18 = load i32, ptr %17, align 4, !tbaa !13
  store i32 %18, ptr %15, align 4, !tbaa !13
  br label %19

19:                                               ; preds = %133, %6
  %20 = load ptr, ptr %8, align 8, !tbaa !14
  %21 = load ptr, ptr %20, align 8, !tbaa !16
  %22 = load ptr, ptr %9, align 8, !tbaa !16
  %23 = icmp ult ptr %21, %22
  br i1 %23, label %24, label %28

24:                                               ; preds = %19
  %25 = load ptr, ptr %10, align 8, !tbaa !16
  %26 = load ptr, ptr %11, align 8, !tbaa !16
  %27 = icmp ult ptr %25, %26
  br label %28

28:                                               ; preds = %24, %19
  %29 = phi i1 [ false, %19 ], [ %27, %24 ]
  br i1 %29, label %30, label %134

30:                                               ; preds = %28
  %31 = load ptr, ptr %8, align 8, !tbaa !14
  %32 = load ptr, ptr %31, align 8, !tbaa !16
  %33 = getelementptr inbounds nuw i8, ptr %32, i32 1
  store ptr %33, ptr %31, align 8, !tbaa !16
  %34 = load i8, ptr %32, align 1, !tbaa !19
  %35 = zext i8 %34 to i32
  store i32 %35, ptr %13, align 4, !tbaa !13
  %36 = load i32, ptr %13, align 4, !tbaa !13
  %37 = zext i32 %36 to i64
  %38 = getelementptr inbounds nuw [256 x i16], ptr @EncCP1251_CtypeTable, i64 0, i64 %37
  %39 = load i16, ptr %38, align 2, !tbaa !21
  %40 = zext i16 %39 to i32
  %41 = and i32 %40, 1024
  %42 = icmp ne i32 %41, 0
  br i1 %42, label %43, label %55

43:                                               ; preds = %30
  %44 = load i32, ptr %15, align 4, !tbaa !13
  %45 = and i32 %44, 540672
  %46 = icmp ne i32 %45, 0
  br i1 %46, label %47, label %55

47:                                               ; preds = %43
  %48 = load i32, ptr %15, align 4, !tbaa !13
  %49 = or i32 %48, 262144
  store i32 %49, ptr %15, align 4, !tbaa !13
  %50 = load i32, ptr %13, align 4, !tbaa !13
  %51 = zext i32 %50 to i64
  %52 = getelementptr inbounds nuw [256 x i8], ptr @EncCP1251_ToLowerCaseTable, i64 0, i64 %51
  %53 = load i8, ptr %52, align 1, !tbaa !19
  %54 = zext i8 %53 to i32
  store i32 %54, ptr %13, align 4, !tbaa !13
  br label %122

55:                                               ; preds = %43, %30
  %56 = load i32, ptr %13, align 4, !tbaa !13
  %57 = icmp eq i32 %56, 181
  br i1 %57, label %58, label %59

58:                                               ; preds = %55
  br label %121

59:                                               ; preds = %55
  %60 = load i32, ptr %13, align 4, !tbaa !13
  %61 = zext i32 %60 to i64
  %62 = getelementptr inbounds nuw [256 x i16], ptr @EncCP1251_CtypeTable, i64 0, i64 %61
  %63 = load i16, ptr %62, align 2, !tbaa !21
  %64 = zext i16 %63 to i32
  %65 = and i32 %64, 64
  %66 = icmp ne i32 %65, 0
  br i1 %66, label %67, label %120

67:                                               ; preds = %59
  %68 = load i32, ptr %15, align 4, !tbaa !13
  %69 = and i32 %68, 8192
  %70 = icmp ne i32 %69, 0
  br i1 %70, label %71, label %120

71:                                               ; preds = %67
  %72 = load i32, ptr %15, align 4, !tbaa !13
  %73 = or i32 %72, 262144
  store i32 %73, ptr %15, align 4, !tbaa !13
  %74 = load i32, ptr %13, align 4, !tbaa !13
  %75 = icmp ule i32 97, %74
  br i1 %75, label %76, label %79

76:                                               ; preds = %71
  %77 = load i32, ptr %13, align 4, !tbaa !13
  %78 = icmp ule i32 %77, 122
  br i1 %78, label %85, label %79

79:                                               ; preds = %76, %71
  %80 = load i32, ptr %13, align 4, !tbaa !13
  %81 = icmp ule i32 224, %80
  br i1 %81, label %82, label %88

82:                                               ; preds = %79
  %83 = load i32, ptr %13, align 4, !tbaa !13
  %84 = icmp ule i32 %83, 255
  br i1 %84, label %85, label %88

85:                                               ; preds = %82, %76
  %86 = load i32, ptr %13, align 4, !tbaa !13
  %87 = sub i32 %86, 32
  store i32 %87, ptr %13, align 4, !tbaa !13
  br label %119

88:                                               ; preds = %82, %79
  %89 = load i32, ptr %13, align 4, !tbaa !13
  %90 = icmp eq i32 %89, 162
  br i1 %90, label %97, label %91

91:                                               ; preds = %88
  %92 = load i32, ptr %13, align 4, !tbaa !13
  %93 = icmp eq i32 %92, 179
  br i1 %93, label %97, label %94

94:                                               ; preds = %91
  %95 = load i32, ptr %13, align 4, !tbaa !13
  %96 = icmp eq i32 %95, 190
  br i1 %96, label %97, label %100

97:                                               ; preds = %94, %91, %88
  %98 = load i32, ptr %13, align 4, !tbaa !13
  %99 = sub i32 %98, 1
  store i32 %99, ptr %13, align 4, !tbaa !13
  br label %118

100:                                              ; preds = %94
  %101 = load i32, ptr %13, align 4, !tbaa !13
  %102 = icmp eq i32 %101, 131
  br i1 %102, label %103, label %104

103:                                              ; preds = %100
  store i32 129, ptr %13, align 4, !tbaa !13
  br label %117

104:                                              ; preds = %100
  %105 = load i32, ptr %13, align 4, !tbaa !13
  %106 = icmp eq i32 %105, 188
  br i1 %106, label %107, label %108

107:                                              ; preds = %104
  store i32 163, ptr %13, align 4, !tbaa !13
  br label %116

108:                                              ; preds = %104
  %109 = load i32, ptr %13, align 4, !tbaa !13
  %110 = icmp eq i32 %109, 180
  br i1 %110, label %111, label %112

111:                                              ; preds = %108
  store i32 165, ptr %13, align 4, !tbaa !13
  br label %115

112:                                              ; preds = %108
  %113 = load i32, ptr %13, align 4, !tbaa !13
  %114 = sub i32 %113, 16
  store i32 %114, ptr %13, align 4, !tbaa !13
  br label %115

115:                                              ; preds = %112, %111
  br label %116

116:                                              ; preds = %115, %107
  br label %117

117:                                              ; preds = %116, %103
  br label %118

118:                                              ; preds = %117, %97
  br label %119

119:                                              ; preds = %118, %85
  br label %120

120:                                              ; preds = %119, %67, %59
  br label %121

121:                                              ; preds = %120, %58
  br label %122

122:                                              ; preds = %121, %47
  %123 = load i32, ptr %13, align 4, !tbaa !13
  %124 = trunc i32 %123 to i8
  %125 = load ptr, ptr %10, align 8, !tbaa !16
  %126 = getelementptr inbounds nuw i8, ptr %125, i32 1
  store ptr %126, ptr %10, align 8, !tbaa !16
  store i8 %124, ptr %125, align 1, !tbaa !19
  %127 = load i32, ptr %15, align 4, !tbaa !13
  %128 = and i32 %127, 32768
  %129 = icmp ne i32 %128, 0
  br i1 %129, label %130, label %133

130:                                              ; preds = %122
  %131 = load i32, ptr %15, align 4, !tbaa !13
  %132 = xor i32 %131, 57344
  store i32 %132, ptr %15, align 4, !tbaa !13
  br label %133

133:                                              ; preds = %130, %122
  br label %19, !llvm.loop !25

134:                                              ; preds = %28
  %135 = load i32, ptr %15, align 4, !tbaa !13
  %136 = load ptr, ptr %7, align 8, !tbaa !23
  store i32 %135, ptr %136, align 4, !tbaa !13
  %137 = load ptr, ptr %10, align 8, !tbaa !16
  %138 = load ptr, ptr %14, align 8, !tbaa !16
  %139 = ptrtoint ptr %137 to i64
  %140 = ptrtoint ptr %138 to i64
  %141 = sub i64 %139, %140
  %142 = trunc i64 %141 to i32
  call void @llvm.lifetime.end.p0(i64 4, ptr %15) #3
  call void @llvm.lifetime.end.p0(i64 8, ptr %14) #3
  call void @llvm.lifetime.end.p0(i64 4, ptr %13) #3
  ret i32 %142
}