; Function Attrs: nofree norecurse nosync nounwind sspstrong memory(read, argmem: readwrite, inaccessiblemem: none) uwtable
define internal i32 @case_map(ptr noundef captures(none) %0, ptr noundef captures(none) %1, ptr noundef readnone captures(address) %2, ptr noundef %3, ptr noundef readnone captures(address) %4, ptr readnone captures(none) %5) #4 {
  %7 = load i32, ptr %0, align 4, !tbaa !14
  %8 = load ptr, ptr %1, align 8, !tbaa !6
  %9 = icmp ult ptr %8, %2
  %10 = icmp ult ptr %3, %4
  %11 = and i1 %9, %10
  br i1 %11, label %.lr.ph, label %._crit_edge

.lr.ph:                                           ; preds = %6, %42
  %12 = phi ptr [ %46, %42 ], [ %8, %6 ]
  %.055 = phi i32 [ %spec.select, %42 ], [ %7, %6 ]
  %.04254 = phi ptr [ %43, %42 ], [ %3, %6 ]
  %13 = getelementptr inbounds nuw i8, ptr %12, i64 1
  store ptr %13, ptr %1, align 8, !tbaa !6
  %14 = load i8, ptr %12, align 1, !tbaa !11
  %15 = zext i8 %14 to i64
  %16 = getelementptr inbounds nuw [256 x i16], ptr @EncCP1251_CtypeTable, i64 0, i64 %15
  %17 = load i16, ptr %16, align 2, !tbaa !12
  %18 = and i16 %17, 1024
  %.not = icmp eq i16 %18, 0
  %19 = and i32 %.055, 540672
  %.not47 = icmp eq i32 %19, 0
  %or.cond51 = select i1 %.not, i1 true, i1 %.not47
  br i1 %or.cond51, label %24, label %20

20:                                               ; preds = %.lr.ph
  %21 = or i32 %.055, 262144
  %22 = getelementptr inbounds nuw [256 x i8], ptr @EncCP1251_ToLowerCaseTable, i64 0, i64 %15
  %23 = load i8, ptr %22, align 1, !tbaa !11
  br label %42

24:                                               ; preds = %.lr.ph
  %25 = icmp eq i8 %14, -75
  br i1 %25, label %42, label %26

26:                                               ; preds = %24
  %27 = and i16 %17, 64
  %.not48 = icmp eq i16 %27, 0
  %28 = and i32 %.055, 8192
  %.not49 = icmp eq i32 %28, 0
  %or.cond52 = select i1 %.not48, i1 true, i1 %.not49
  br i1 %or.cond52, label %42, label %29

29:                                               ; preds = %26
  %30 = or i32 %.055, 262144
  %31 = add i8 %14, -97
  %or.cond = icmp ult i8 %31, 26
  %32 = icmp ugt i8 %14, -33
  %or.cond53 = or i1 %32, %or.cond
  br i1 %or.cond53, label %33, label %35

33:                                               ; preds = %29
  %34 = add nsw i8 %14, -32
  br label %42

35:                                               ; preds = %29
  switch i8 %14, label %40 [
    i8 -66, label %36
    i8 -77, label %36
    i8 -94, label %36
    i8 -125, label %42
    i8 -68, label %38
    i8 -76, label %39
  ]

36:                                               ; preds = %35, %35, %35
  %37 = add nsw i8 %14, -1
  br label %42

38:                                               ; preds = %35
  br label %42

39:                                               ; preds = %35
  br label %42

40:                                               ; preds = %35
  %41 = add i8 %14, -16
  br label %42

42:                                               ; preds = %35, %24, %33, %39, %40, %38, %36, %26, %20
  %.043 = phi i8 [ %23, %20 ], [ -75, %24 ], [ %34, %33 ], [ %37, %36 ], [ -93, %38 ], [ -91, %39 ], [ %41, %40 ], [ %14, %26 ], [ -127, %35 ]
  %.1 = phi i32 [ %21, %20 ], [ %.055, %24 ], [ %30, %33 ], [ %30, %36 ], [ %30, %38 ], [ %30, %39 ], [ %30, %40 ], [ %.055, %26 ], [ %30, %35 ]
  %43 = getelementptr inbounds nuw i8, ptr %.04254, i64 1
  store i8 %.043, ptr %.04254, align 1, !tbaa !11
  %44 = and i32 %.1, 32768
  %.not50 = icmp eq i32 %44, 0
  %45 = xor i32 %.1, 57344
  %spec.select = select i1 %.not50, i32 %.1, i32 %45
  %46 = load ptr, ptr %1, align 8, !tbaa !6
  %47 = icmp ult ptr %46, %2
  %48 = icmp ult ptr %43, %4
  %49 = select i1 %47, i1 %48, i1 false
  br i1 %49, label %.lr.ph, label %._crit_edge, !llvm.loop !16

._crit_edge:                                      ; preds = %42, %6
  %.042.lcssa = phi ptr [ %3, %6 ], [ %43, %42 ]
  %.0.lcssa = phi i32 [ %7, %6 ], [ %spec.select, %42 ]
  store i32 %.0.lcssa, ptr %0, align 4, !tbaa !14
  %50 = ptrtoint ptr %.042.lcssa to i64
  %51 = ptrtoint ptr %3 to i64
  %52 = sub i64 %50, %51
  %53 = trunc i64 %52 to i32
  ret i32 %53
}